target datalayout = "e-m:e-p270:32:32-p271:32:32-p272:64:64-i64:64-i128:128-f80:128-n8:16:32:64-S128"
target triple = "x86_64-pc-linux-gnu"

%struct._Node = type { %union.anon }
%union.anon = type { %struct.StrNode }
%struct.StrNode = type { %struct.NodeBase, ptr, ptr, i32, i32, [24 x i8] }
%struct.NodeBase = type { i32 }

; Function Attrs: alwaysinline nounwind
define internal ptr @memcpy.inline(ptr noalias nonnull %0, ptr noalias nonnull %1, i64 %2) #2 {
  %4 = alloca ptr, align 8
  %5 = alloca ptr, align 8
  %6 = alloca i64, align 8
  store ptr %0, ptr %4, align 8, !tbaa !12
  store ptr %1, ptr %5, align 8, !tbaa !12
  store i64 %2, ptr %6, align 8, !tbaa !15
  %7 = load ptr, ptr %4, align 8, !tbaa !12
  %8 = load ptr, ptr %5, align 8, !tbaa !12
  %9 = load i64, ptr %6, align 8, !tbaa !15
  %10 = load ptr, ptr %4, align 8, !tbaa !12
  %11 = call i64 @llvm.objectsize.i64.p0(ptr %10, i1 false, i1 true, i1 false)
  %12 = call ptr @__memcpy_chk(ptr noundef %7, ptr noundef %8, i64 noundef %9, i64 noundef %11) #13
  ret ptr %12
}

; Function Attrs: nounwind sspstrong uwtable
define internal ptr @node_new() #0 {
  %1 = alloca ptr, align 8
  call void @llvm.lifetime.start.p0(i64 8, ptr %1) #13
  %2 = call noalias ptr @malloc(i64 noundef 56) #14
  store ptr %2, ptr %1, align 8, !tbaa !68
  %3 = load ptr, ptr %1, align 8, !tbaa !68
  call void @llvm.lifetime.end.p0(i64 8, ptr %1) #13
  ret ptr %3
}

; Function Attrs: nounwind sspstrong uwtable
define internal ptr @node_new_str(ptr noundef %0, ptr noundef %1) #0 {
  %3 = alloca ptr, align 8
  %4 = alloca ptr, align 8
  %5 = alloca ptr, align 8
  %6 = alloca ptr, align 8
  %7 = alloca i32, align 4
  %8 = alloca i32, align 4
  store ptr %0, ptr %4, align 8, !tbaa !7
  store ptr %1, ptr %5, align 8, !tbaa !7
  call void @llvm.lifetime.start.p0(i64 8, ptr %6) #13
  %9 = call ptr @node_new()
  store ptr %9, ptr %6, align 8, !tbaa !68
  %10 = load ptr, ptr %6, align 8, !tbaa !68
  %11 = icmp eq ptr %10, null
  br i1 %11, label %12, label %13

12:                                               ; preds = %2
  store ptr null, ptr %3, align 8
  store i32 1, ptr %7, align 4
  br label %50

13:                                               ; preds = %2
  br label %14

14:                                               ; preds = %13
  call void @llvm.lifetime.start.p0(i64 4, ptr %8) #13
  store i32 0, ptr %8, align 4, !tbaa !13
  %15 = load ptr, ptr %6, align 8, !tbaa !68
  %16 = getelementptr inbounds nuw %struct._Node, ptr %15, i32 0, i32 0
  %17 = getelementptr inbounds nuw %struct.NodeBase, ptr %16, i32 0, i32 0
  %18 = call ptr @memcpy.inline(ptr noundef %17, ptr noundef %8, i64 noundef 4) #13
  call void @llvm.lifetime.end.p0(i64 4, ptr %8) #13
  br label %19

19:                                               ; preds = %14
  br label %20

20:                                               ; preds = %19
  %21 = load ptr, ptr %6, align 8, !tbaa !68
  %22 = getelementptr inbounds nuw %struct._Node, ptr %21, i32 0, i32 0
  %23 = getelementptr inbounds nuw %struct.StrNode, ptr %22, i32 0, i32 4
  store i32 0, ptr %23, align 4, !tbaa !17
  %24 = load ptr, ptr %6, align 8, !tbaa !68
  %25 = getelementptr inbounds nuw %struct._Node, ptr %24, i32 0, i32 0
  %26 = getelementptr inbounds nuw %struct.StrNode, ptr %25, i32 0, i32 3
  store i32 0, ptr %26, align 8, !tbaa !17
  %27 = load ptr, ptr %6, align 8, !tbaa !68
  %28 = getelementptr inbounds nuw %struct._Node, ptr %27, i32 0, i32 0
  %29 = getelementptr inbounds nuw %struct.StrNode, ptr %28, i32 0, i32 5
  %30 = getelementptr inbounds [24 x i8], ptr %29, i64 0, i64 0
  %31 = load ptr, ptr %6, align 8, !tbaa !68
  %32 = getelementptr inbounds nuw %struct._Node, ptr %31, i32 0, i32 0
  %33 = getelementptr inbounds nuw %struct.StrNode, ptr %32, i32 0, i32 1
  store ptr %30, ptr %33, align 8, !tbaa !17
  %34 = load ptr, ptr %6, align 8, !tbaa !68
  %35 = getelementptr inbounds nuw %struct._Node, ptr %34, i32 0, i32 0
  %36 = getelementptr inbounds nuw %struct.StrNode, ptr %35, i32 0, i32 5
  %37 = getelementptr inbounds [24 x i8], ptr %36, i64 0, i64 0
  %38 = load ptr, ptr %6, align 8, !tbaa !68
  %39 = getelementptr inbounds nuw %struct._Node, ptr %38, i32 0, i32 0
  %40 = getelementptr inbounds nuw %struct.StrNode, ptr %39, i32 0, i32 2
  store ptr %37, ptr %40, align 8, !tbaa !17
  %41 = load ptr, ptr %6, align 8, !tbaa !68
  %42 = load ptr, ptr %4, align 8, !tbaa !7
  %43 = load ptr, ptr %5, align 8, !tbaa !7
  %44 = call i32 @onig_node_str_cat(ptr noundef %41, ptr noundef %42, ptr noundef %43)
  %45 = icmp ne i32 %44, 0
  br i1 %45, label %46, label %48

46:                                               ; preds = %20
  %47 = load ptr, ptr %6, align 8, !tbaa !68
  call void @onig_node_free(ptr noundef %47)
  store ptr null, ptr %3, align 8
  store i32 1, ptr %7, align 4
  br label %50

48:                                               ; preds = %20
  %49 = load ptr, ptr %6, align 8, !tbaa !68
  store ptr %49, ptr %3, align 8
  store i32 1, ptr %7, align 4
  br label %50

50:                                               ; preds = %48, %46, %12
  call void @llvm.lifetime.end.p0(i64 8, ptr %6) #13
  %51 = load ptr, ptr %3, align 8
  ret ptr %51
}

; Function Attrs: nounwind sspstrong uwtable
define dso_local ptr @onig_node_new_str(ptr noundef %0, ptr noundef %1) #0 {
  %3 = alloca ptr, align 8
  %4 = alloca ptr, align 8
  store ptr %0, ptr %3, align 8, !tbaa !7
  store ptr %1, ptr %4, align 8, !tbaa !7
  %5 = load ptr, ptr %3, align 8, !tbaa !7
  %6 = load ptr, ptr %4, align 8, !tbaa !7
  %7 = call ptr @node_new_str(ptr noundef %5, ptr noundef %6)
  ret ptr %7
}