; Function Attrs: nounwind sspstrong uwtable
define dso_local noundef ptr @onig_node_new_str(ptr noundef %0, ptr noundef %1) local_unnamed_addr #5 {
  %3 = tail call noalias noundef dereferenceable_or_null(56) ptr @malloc(i64 noundef 56) #26
  %4 = icmp eq ptr %3, null
  br i1 %4, label %node_new_str.exit, label %5

5:                                                ; preds = %2
  store i32 0, ptr %3, align 1
  %6 = getelementptr inbounds nuw i8, ptr %3, i64 28
  store i32 0, ptr %6, align 4, !tbaa !13
  %7 = getelementptr inbounds nuw i8, ptr %3, i64 24
  store i32 0, ptr %7, align 8, !tbaa !13
  %8 = getelementptr inbounds nuw i8, ptr %3, i64 32
  %9 = getelementptr inbounds nuw i8, ptr %3, i64 8
  store ptr %8, ptr %9, align 8, !tbaa !13
  %10 = getelementptr inbounds nuw i8, ptr %3, i64 16
  store ptr %8, ptr %10, align 8, !tbaa !13
  %11 = tail call i32 @onig_node_str_cat(ptr noundef nonnull %3, ptr noundef %0, ptr noundef %1)
  %.not.i = icmp eq i32 %11, 0
  br i1 %.not.i, label %node_new_str.exit, label %12

12:                                               ; preds = %5
  tail call void @onig_node_free(ptr noundef nonnull %3)
  br label %node_new_str.exit

node_new_str.exit:                                ; preds = %2, %5, %12
  %.0.i = phi ptr [ null, %12 ], [ null, %2 ], [ %3, %5 ]
  ret ptr %.0.i
}